target datalayout = "e-m:e-p270:32:32-p271:32:32-p272:64:64-i64:64-i128:128-f80:128-n8:16:32:64-S128"
target triple = "x86_64-pc-linux-gnu"

%struct.H5_debug_t = type { ptr, i8, i8, [20 x %struct.anon], ptr }
%struct.anon = type { ptr, ptr }
%struct.H5FL_reg_head_t = type { i8, i32, i32, ptr, i64, ptr }
%struct.anon.1 = type { ptr, ptr, i8, i8 }
%struct.H5_atclose_node_t = type { ptr, ptr, ptr }
%struct.H5_debug_open_stream_t = type { ptr, ptr }

@H5_libinit_g = global i8 0, align 1
@H5_libterm_g = global i8 0, align 1
@H5_debug_g = global %struct.H5_debug_t zeroinitializer, align 8
@H5_atclose_head = internal global ptr null, align 8
@H5_H5_atclose_node_t_reg_free_list = internal global %struct.H5FL_reg_head_t { i8 0, i32 0, i32 0, ptr @.str.87, i64 24, ptr null }, align 8
@.str.60 = private unnamed_addr constant [5 x i8] c"%s%s\00", align 1
@.str.61 = private unnamed_addr constant [2 x i8] c",\00", align 1
@.str.62 = private unnamed_addr constant [1 x i8] zeroinitializer, align 1
@.str.63 = private unnamed_addr constant [4 x i8] c"...\00", align 1
@stderr = external global ptr, align 8
@.str.64 = private unnamed_addr constant [37 x i8] c"HDF5: infinite loop closing library\0A\00", align 1
@.str.65 = private unnamed_addr constant [10 x i8] c"      %s\0A\00", align 1

; Function Attrs: nounwind uwtable
define void @H5_term_library() #0 {
  %1 = alloca i32, align 4
  %2 = alloca i32, align 4
  %3 = alloca [1024 x i8], align 16
  %4 = alloca ptr, align 8
  %5 = alloca i64, align 8
  %6 = alloca i64, align 8
  %7 = alloca i32, align 4
  %8 = alloca ptr, align 8
  %9 = alloca ptr, align 8
  %10 = alloca ptr, align 8
  %11 = alloca [26 x %struct.anon.1], align 16
  %12 = alloca ptr, align 8
  store i32 0, ptr %2, align 4
  %13 = getelementptr inbounds [1024 x i8], ptr %3, i64 0, i64 0
  store ptr %13, ptr %4, align 8
  store i64 1024, ptr %6, align 8
  %14 = load i8, ptr @H5_libinit_g, align 1
  %15 = trunc i8 %14 to i1
  br i1 %15, label %17, label %16

16:                                               ; preds = %0
  br label %158

17:                                               ; preds = %0
  store i8 1, ptr @H5_libterm_g, align 1
  call void @H5CX_push_special()
  %18 = call i32 @H5Eget_auto2(i64 noundef 0, ptr noundef %8, ptr noundef null)
  %19 = load ptr, ptr @H5_atclose_head, align 8
  %20 = icmp ne ptr %19, null
  br i1 %20, label %21, label %40

21:                                               ; preds = %17
  %22 = load ptr, ptr @H5_atclose_head, align 8
  store ptr %22, ptr %9, align 8
  br label %23

23:                                               ; preds = %26, %21
  %24 = load ptr, ptr %9, align 8
  %25 = icmp ne ptr %24, null
  br i1 %25, label %26, label %39

26:                                               ; preds = %23
  %27 = load ptr, ptr %9, align 8
  %28 = getelementptr inbounds %struct.H5_atclose_node_t, ptr %27, i32 0, i32 0
  %29 = load ptr, ptr %28, align 8
  %30 = load ptr, ptr %9, align 8
  %31 = getelementptr inbounds %struct.H5_atclose_node_t, ptr %30, i32 0, i32 1
  %32 = load ptr, ptr %31, align 8
  call void %29(ptr noundef %32)
  %33 = load ptr, ptr %9, align 8
  store ptr %33, ptr %10, align 8
  %34 = load ptr, ptr %9, align 8
  %35 = getelementptr inbounds %struct.H5_atclose_node_t, ptr %34, i32 0, i32 2
  %36 = load ptr, ptr %35, align 8
  store ptr %36, ptr %9, align 8
  %37 = load ptr, ptr %10, align 8
  %38 = call ptr @H5FL_reg_free(ptr noundef @H5_H5_atclose_node_t_reg_free_list, ptr noundef %37)
  br label %23

39:                                               ; preds = %23
  store ptr null, ptr @H5_atclose_head, align 8
  br label %40

40:                                               ; preds = %39, %17
  call void @llvm.memcpy.p0.p0.i64(ptr align 16 %11, ptr align 16 @__const.H5_term_library.terminator, i64 624, i1 false)
  br label %41

41:                                               ; preds = %128, %40
  store i32 0, ptr %1, align 4
  store i64 0, ptr %5, align 8
  br label %42

42:                                               ; preds = %117, %41
  %43 = load i64, ptr %5, align 8
  %44 = icmp ult i64 %43, 26
  br i1 %44, label %45, label %120

45:                                               ; preds = %42
  %46 = load i64, ptr %5, align 8
  %47 = getelementptr inbounds [26 x %struct.anon.1], ptr %11, i64 0, i64 %46
  %48 = getelementptr inbounds %struct.anon.1, ptr %47, i32 0, i32 2
  %49 = load i8, ptr %48, align 8
  %50 = trunc i8 %49 to i1
  br i1 %50, label %51, label %52

51:                                               ; preds = %45
  br label %117

52:                                               ; preds = %45
  %53 = load i32, ptr %1, align 4
  %54 = icmp ne i32 %53, 0
  br i1 %54, label %55, label %62

55:                                               ; preds = %52
  %56 = load i64, ptr %5, align 8
  %57 = getelementptr inbounds [26 x %struct.anon.1], ptr %11, i64 0, i64 %56
  %58 = getelementptr inbounds %struct.anon.1, ptr %57, i32 0, i32 3
  %59 = load i8, ptr %58, align 1
  %60 = trunc i8 %59 to i1
  br i1 %60, label %61, label %62

61:                                               ; preds = %55
  br label %120

62:                                               ; preds = %55, %52
  %63 = load i64, ptr %5, align 8
  %64 = getelementptr inbounds [26 x %struct.anon.1], ptr %11, i64 0, i64 %63
  %65 = getelementptr inbounds %struct.anon.1, ptr %64, i32 0, i32 0
  %66 = load ptr, ptr %65, align 8
  %67 = call i32 %66()
  %68 = icmp eq i32 %67, 0
  br i1 %68, label %69, label %73

69:                                               ; preds = %62
  %70 = load i64, ptr %5, align 8
  %71 = getelementptr inbounds [26 x %struct.anon.1], ptr %11, i64 0, i64 %70
  %72 = getelementptr inbounds %struct.anon.1, ptr %71, i32 0, i32 2
  store i8 1, ptr %72, align 8
  br label %117

73:                                               ; preds = %62
  %74 = load i32, ptr %1, align 4
  %75 = add nsw i32 %74, 1
  store i32 %75, ptr %1, align 4
  %76 = load ptr, ptr %4, align 8
  %77 = load i64, ptr %6, align 8
  %78 = load ptr, ptr %4, align 8
  %79 = getelementptr inbounds [1024 x i8], ptr %3, i64 0, i64 0
  %80 = icmp ne ptr %78, %79
  %81 = select i1 %80, ptr @.str.61, ptr @.str.62
  %82 = load i64, ptr %5, align 8
  %83 = getelementptr inbounds [26 x %struct.anon.1], ptr %11, i64 0, i64 %82
  %84 = getelementptr inbounds %struct.anon.1, ptr %83, i32 0, i32 1
  %85 = load ptr, ptr %84, align 8
  %86 = call i32 (ptr, i64, ptr, ...) @snprintf(ptr noundef %76, i64 noundef %77, ptr noundef @.str.60, ptr noundef %81, ptr noundef %85) #10
  store i32 %86, ptr %7, align 4
  %87 = load i32, ptr %7, align 4
  %88 = icmp slt i32 %87, 0
  br i1 %88, label %89, label %90

89:                                               ; preds = %73
  br label %117

90:                                               ; preds = %73
  %91 = load i32, ptr %7, align 4
  %92 = sext i32 %91 to i64
  %93 = load i64, ptr %6, align 8
  %94 = icmp uge i64 %92, %93
  br i1 %94, label %95, label %99

95:                                               ; preds = %90
  %96 = load ptr, ptr %4, align 8
  %97 = load i64, ptr %6, align 8
  %98 = call i32 (ptr, i64, ptr, ...) @snprintf(ptr noundef %96, i64 noundef %97, ptr noundef @.str.63) #10
  store i32 %98, ptr %7, align 4
  br label %99

99:                                               ; preds = %95, %90
  %100 = load i32, ptr %7, align 4
  %101 = icmp slt i32 %100, 0
  br i1 %101, label %107, label %102

102:                                              ; preds = %99
  %103 = load i32, ptr %7, align 4
  %104 = sext i32 %103 to i64
  %105 = load i64, ptr %6, align 8
  %106 = icmp uge i64 %104, %105
  br i1 %106, label %107, label %108

107:                                              ; preds = %102, %99
  br label %117

108:                                              ; preds = %102
  %109 = load i32, ptr %7, align 4
  %110 = sext i32 %109 to i64
  %111 = load i64, ptr %6, align 8
  %112 = sub i64 %111, %110
  store i64 %112, ptr %6, align 8
  %113 = load i32, ptr %7, align 4
  %114 = load ptr, ptr %4, align 8
  %115 = sext i32 %113 to i64
  %116 = getelementptr inbounds i8, ptr %114, i64 %115
  store ptr %116, ptr %4, align 8
  br label %117

117:                                              ; preds = %108, %107, %89, %69, %51
  %118 = load i64, ptr %5, align 8
  %119 = add i64 %118, 1
  store i64 %119, ptr %5, align 8
  br label %42

120:                                              ; preds = %61, %42
  br label %121

121:                                              ; preds = %120
  %122 = load i32, ptr %1, align 4
  %123 = icmp ne i32 %122, 0
  br i1 %123, label %124, label %128

124:                                              ; preds = %121
  %125 = load i32, ptr %2, align 4
  %126 = add nsw i32 %125, 1
  store i32 %126, ptr %2, align 4
  %127 = icmp slt i32 %125, 100
  br label %128

128:                                              ; preds = %124, %121
  %129 = phi i1 [ false, %121 ], [ %127, %124 ]
  br i1 %129, label %41, label %130

130:                                              ; preds = %128
  %131 = load i32, ptr %1, align 4
  %132 = icmp ne i32 %131, 0
  br i1 %132, label %133, label %143

133:                                              ; preds = %130
  %134 = load ptr, ptr %8, align 8
  %135 = icmp ne ptr %134, null
  br i1 %135, label %136, label %142

136:                                              ; preds = %133
  %137 = load ptr, ptr @stderr, align 8
  %138 = call i32 (ptr, ptr, ...) @fprintf(ptr noundef %137, ptr noundef @.str.64) #10
  %139 = load ptr, ptr @stderr, align 8
  %140 = getelementptr inbounds [1024 x i8], ptr %3, i64 0, i64 0
  %141 = call i32 (ptr, ptr, ...) @fprintf(ptr noundef %139, ptr noundef @.str.65, ptr noundef %140) #10
  br label %142

142:                                              ; preds = %136, %133
  br label %143

143:                                              ; preds = %142, %130
  br label %144

144:                                              ; preds = %147, %143
  %145 = load ptr, ptr getelementptr inbounds (%struct.H5_debug_t, ptr @H5_debug_g, i32 0, i32 4), align 8
  %146 = icmp ne ptr %145, null
  br i1 %146, label %147, label %157

147:                                              ; preds = %144
  %148 = load ptr, ptr getelementptr inbounds (%struct.H5_debug_t, ptr @H5_debug_g, i32 0, i32 4), align 8
  store ptr %148, ptr %12, align 8
  %149 = load ptr, ptr getelementptr inbounds (%struct.H5_debug_t, ptr @H5_debug_g, i32 0, i32 4), align 8
  %150 = getelementptr inbounds %struct.H5_debug_open_stream_t, ptr %149, i32 0, i32 0
  %151 = load ptr, ptr %150, align 8
  %152 = call i32 @fclose(ptr noundef %151)
  %153 = load ptr, ptr getelementptr inbounds (%struct.H5_debug_t, ptr @H5_debug_g, i32 0, i32 4), align 8
  %154 = getelementptr inbounds %struct.H5_debug_open_stream_t, ptr %153, i32 0, i32 1
  %155 = load ptr, ptr %154, align 8
  store ptr %155, ptr getelementptr inbounds (%struct.H5_debug_t, ptr @H5_debug_g, i32 0, i32 4), align 8
  %156 = load ptr, ptr %12, align 8
  call void @free(ptr noundef %156) #10
  br label %144

157:                                              ; preds = %144
  store i8 0, ptr @H5_libterm_g, align 1
  store i8 0, ptr @H5_libinit_g, align 1
  br label %158

158:                                              ; preds = %157, %16
  ret void
}