; Function Attrs: nounwind uwtable
define void @H5_term_library() #0 {
  %1 = alloca [1024 x i8], align 16
  %2 = alloca ptr, align 8
  %3 = alloca [26 x %struct.anon.1], align 16
  %4 = load i8, ptr @H5_libinit_g, align 1
  %5 = trunc i8 %4 to i1
  br i1 %5, label %6, label %70

6:                                                ; preds = %0
  store i8 1, ptr @H5_libterm_g, align 1
  tail call void @H5CX_push_special() #21
  %7 = call i32 @H5Eget_auto2(i64 noundef 0, ptr noundef nonnull %2, ptr noundef null) #21
  %8 = load ptr, ptr @H5_atclose_head, align 8
  %.not = icmp eq ptr %8, null
  br i1 %.not, label %16, label %.preheader

.preheader:                                       ; preds = %6, %.preheader
  %.03557 = phi ptr [ %13, %.preheader ], [ %8, %6 ]
  %9 = load ptr, ptr %.03557, align 8
  %10 = getelementptr inbounds i8, ptr %.03557, i64 8
  %11 = load ptr, ptr %10, align 8
  call void %9(ptr noundef %11) #21
  %12 = getelementptr inbounds i8, ptr %.03557, i64 16
  %13 = load ptr, ptr %12, align 8
  %14 = call ptr @H5FL_reg_free(ptr noundef nonnull @H5_H5_atclose_node_t_reg_free_list, ptr noundef nonnull %.03557) #21
  %.not47 = icmp eq ptr %13, null
  br i1 %.not47, label %15, label %.preheader

15:                                               ; preds = %.preheader
  store ptr null, ptr @H5_atclose_head, align 8
  br label %16

16:                                               ; preds = %15, %6
  call void @llvm.memcpy.p0.p0.i64(ptr noundef nonnull align 16 dereferenceable(624) %3, ptr noundef nonnull align 16 dereferenceable(624) @__const.H5_term_library.terminator, i64 624, i1 false)
  br label %17

17:                                               ; preds = %50, %16
  %.040 = phi ptr [ %1, %16 ], [ %.141.lcssa, %50 ]
  %.037 = phi i64 [ 1024, %16 ], [ %.138.lcssa, %50 ]
  %.034 = phi i32 [ 0, %16 ], [ %52, %50 ]
  br label %18

18:                                               ; preds = %17, %48
  %.061 = phi i32 [ 0, %17 ], [ %.1, %48 ]
  %.13860 = phi i64 [ %.037, %17 ], [ %.2, %48 ]
  %.03959 = phi i64 [ 0, %17 ], [ %49, %48 ]
  %.14158 = phi ptr [ %.040, %17 ], [ %.242, %48 ]
  %19 = getelementptr inbounds [26 x %struct.anon.1], ptr %3, i64 0, i64 %.03959
  %20 = getelementptr inbounds i8, ptr %19, i64 16
  %21 = load i8, ptr %20, align 8
  %22 = trunc i8 %21 to i1
  br i1 %22, label %48, label %23

23:                                               ; preds = %18
  %.not48 = icmp eq i32 %.061, 0
  br i1 %.not48, label %28, label %24

24:                                               ; preds = %23
  %25 = getelementptr inbounds i8, ptr %19, i64 17
  %26 = load i8, ptr %25, align 1
  %27 = trunc i8 %26 to i1
  br i1 %27, label %50, label %28

28:                                               ; preds = %24, %23
  %29 = load ptr, ptr %19, align 8
  %30 = call i32 %29() #21
  %31 = icmp eq i32 %30, 0
  br i1 %31, label %32, label %33

32:                                               ; preds = %28
  store i8 1, ptr %20, align 8
  br label %48

33:                                               ; preds = %28
  %34 = add nsw i32 %.061, 1
  %.not49 = icmp eq ptr %.14158, %1
  %35 = select i1 %.not49, ptr @.str.62, ptr @.str.61
  %36 = getelementptr inbounds i8, ptr %19, i64 8
  %37 = load ptr, ptr %36, align 8
  %38 = call i32 (ptr, i64, ptr, ...) @snprintf(ptr noundef %.14158, i64 noundef %.13860, ptr noundef nonnull @.str.60, ptr noundef nonnull %35, ptr noundef %37) #21
  %39 = icmp slt i32 %38, 0
  br i1 %39, label %48, label %40

40:                                               ; preds = %33
  %41 = zext nneg i32 %38 to i64
  %.not50 = icmp ugt i64 %.13860, %41
  br i1 %.not50, label %.thread, label %42

42:                                               ; preds = %40
  %43 = call i32 (ptr, i64, ptr, ...) @snprintf(ptr noundef %.14158, i64 noundef %.13860, ptr noundef nonnull @.str.63) #21
  %44 = icmp slt i32 %43, 0
  br i1 %44, label %48, label %..thread_crit_edge

..thread_crit_edge:                               ; preds = %42
  %.pre = zext nneg i32 %43 to i64
  br label %.thread

.thread:                                          ; preds = %..thread_crit_edge, %40
  %.pre-phi = phi i64 [ %.pre, %..thread_crit_edge ], [ %41, %40 ]
  %.not51 = icmp ugt i64 %.13860, %.pre-phi
  br i1 %.not51, label %45, label %48

45:                                               ; preds = %.thread
  %46 = sub i64 %.13860, %.pre-phi
  %47 = getelementptr inbounds i8, ptr %.14158, i64 %.pre-phi
  br label %48

48:                                               ; preds = %42, %.thread, %33, %18, %45, %32
  %.242 = phi ptr [ %.14158, %18 ], [ %.14158, %32 ], [ %.14158, %33 ], [ %.14158, %42 ], [ %.14158, %.thread ], [ %47, %45 ]
  %.2 = phi i64 [ %.13860, %18 ], [ %.13860, %32 ], [ %.13860, %33 ], [ %.13860, %42 ], [ %.13860, %.thread ], [ %46, %45 ]
  %.1 = phi i32 [ %.061, %18 ], [ %.061, %32 ], [ %34, %33 ], [ %34, %42 ], [ %34, %.thread ], [ %34, %45 ]
  %49 = add nuw nsw i64 %.03959, 1
  %exitcond.not = icmp eq i64 %49, 26
  br i1 %exitcond.not, label %50, label %18

50:                                               ; preds = %48, %24
  %.141.lcssa = phi ptr [ %.242, %48 ], [ %.14158, %24 ]
  %.138.lcssa = phi i64 [ %.2, %48 ], [ %.13860, %24 ]
  %.0.lcssa = phi i32 [ %.1, %48 ], [ 1, %24 ]
  %51 = icmp ne i32 %.0.lcssa, 0
  %52 = add nuw nsw i32 %.034, 1
  %53 = icmp ult i32 %.034, 100
  %or.cond54 = select i1 %51, i1 %53, i1 false
  br i1 %or.cond54, label %17, label %.critedge

.critedge:                                        ; preds = %50
  %54 = load ptr, ptr %2, align 8
  %55 = icmp ne ptr %54, null
  %or.cond = select i1 %51, i1 %55, i1 false
  br i1 %or.cond, label %56, label %61

56:                                               ; preds = %.critedge
  %57 = load ptr, ptr @stderr, align 8
  %58 = call i64 @fwrite(ptr nonnull @.str.64, i64 36, i64 1, ptr %57) #22
  %59 = load ptr, ptr @stderr, align 8
  %60 = call i32 (ptr, ptr, ...) @fprintf(ptr noundef %59, ptr noundef nonnull @.str.65, ptr noundef nonnull %1) #23
  br label %61

61:                                               ; preds = %56, %.critedge
  %62 = load ptr, ptr getelementptr inbounds (i8, ptr @H5_debug_g, i64 336), align 8
  %.not5262 = icmp eq ptr %62, null
  br i1 %.not5262, label %._crit_edge, label %.lr.ph

.lr.ph:                                           ; preds = %61, %.lr.ph
  %63 = phi ptr [ %69, %.lr.ph ], [ %62, %61 ]
  %64 = load ptr, ptr %63, align 8
  %65 = call i32 @fclose(ptr noundef %64)
  %66 = load ptr, ptr getelementptr inbounds (i8, ptr @H5_debug_g, i64 336), align 8
  %67 = getelementptr inbounds i8, ptr %66, i64 8
  %68 = load ptr, ptr %67, align 8
  store ptr %68, ptr getelementptr inbounds (i8, ptr @H5_debug_g, i64 336), align 8
  call void @free(ptr noundef nonnull %63) #21
  %69 = load ptr, ptr getelementptr inbounds (i8, ptr @H5_debug_g, i64 336), align 8
  %.not52 = icmp eq ptr %69, null
  br i1 %.not52, label %._crit_edge, label %.lr.ph

._crit_edge:                                      ; preds = %.lr.ph, %61
  store i8 0, ptr @H5_libterm_g, align 1
  store i8 0, ptr @H5_libinit_g, align 1
  br label %70

70:                                               ; preds = %0, %._crit_edge
  ret void
}